; Function Attrs: inlinehint nounwind uwtable
define internal i64 @malloc_write_fd(i32 noundef %0, ptr noundef %1, i64 noundef %2) #6 {
  br label %4

4:                                                ; preds = %9, %3
  %.014 = phi i64 [ 0, %3 ], [ %10, %9 ]
  %5 = getelementptr inbounds nuw i8, ptr %1, i64 %.014
  %6 = sub i64 %2, %.014
  %7 = tail call i64 (i64, ...) @syscall(i64 noundef 1, i32 noundef %0, ptr noundef %5, i64 noundef %6) #12
  %8 = icmp sgt i64 %7, -1
  br i1 %8, label %9, label %12

9:                                                ; preds = %4
  %10 = add i64 %7, %.014
  %11 = icmp ult i64 %10, %2
  br i1 %11, label %4, label %12, !llvm.loop !4

12:                                               ; preds = %9, %4
  %.2 = phi i64 [ %7, %4 ], [ %10, %9 ]
  ret i64 %.2
}